; Function Attrs: nounwind uwtable
define dso_local ptr @abi_arg_new_direct_int_ext_by_reg(ptr nocapture noundef readonly %0, i1 noundef zeroext %1) local_unnamed_addr #2 {
  %3 = tail call ptr @calloc_arena(i64 noundef 32) #5
  %4 = getelementptr inbounds i8, ptr %3, i64 4
  %5 = load i8, ptr %4, align 4
  %6 = and i8 %5, -64
  %7 = or disjoint i8 %6, 1
  store i8 %7, ptr %4, align 4
  %8 = load i32, ptr %0, align 8
  %9 = add i32 %8, -3
  %or.cond = icmp ult i32 %9, 5
  br i1 %or.cond, label %.critedge, label %10

10:                                               ; preds = %2
  %.not = icmp eq i32 %8, 37
  br i1 %.not, label %11, label %.critedge15

11:                                               ; preds = %10
  %12 = getelementptr inbounds i8, ptr %0, i64 56
  %13 = load ptr, ptr %12, align 8
  %14 = load i32, ptr %13, align 8
  %15 = add i32 %14, -3
  %16 = icmp ult i32 %15, 5
  br i1 %16, label %.critedge, label %.critedge15

.critedge15:                                      ; preds = %10, %11
  br label %.critedge

.critedge:                                        ; preds = %11, %2, %.critedge15
  %.sink16 = phi i8 [ 2, %.critedge15 ], [ 4, %2 ], [ 4, %11 ]
  %17 = getelementptr inbounds i8, ptr %3, i64 5
  %18 = load i8, ptr %17, align 1
  %19 = zext i1 %1 to i8
  %20 = getelementptr inbounds i8, ptr %3, i64 5
  %.masked = and i8 %18, -2
  %21 = or i8 %.masked, %.sink16
  %22 = or disjoint i8 %21, %19
  store i8 %22, ptr %20, align 1
  ret ptr %3
}